; ModuleID = '51/139.c'
source_filename = "51/139.c"
target datalayout = "e-m:e-p270:32:32-p271:32:32-p272:64:64-i64:64-f80:128-n8:16:32:64-S128"
target triple = "x86_64-pc-linux-gnu"

@.str = private unnamed_addr constant [6 x i8] c"%d %s\00", align 1
@.str.1 = private unnamed_addr constant [3 x i8] c"NO\00", align 1
@.str.2 = private unnamed_addr constant [4 x i8] c"%d\0A\00", align 1
@.str.3 = private unnamed_addr constant [4 x i8] c"%s\0A\00", align 1

; Function Attrs: noinline nounwind uwtable
define dso_local void @main() #0 {
  %1 = alloca i32, align 4
  %2 = alloca i32, align 4
  %3 = alloca i32, align 4
  %4 = alloca i32, align 4
  %5 = alloca i32, align 4
  %6 = alloca i32, align 4
  %7 = alloca i32, align 4
  %8 = alloca [1000 x i32], align 16
  %9 = alloca i32, align 4
  %10 = alloca i32, align 4
  %11 = alloca [1000 x i32], align 16
  %12 = alloca [10000 x i8], align 16
  %13 = alloca [1000 x [1000 x i8]], align 16
  store i32 0, i32* %7, align 4
  %14 = bitcast [1000 x i32]* %8 to i8*
  call void @llvm.memset.p0i8.i64(i8* align 16 %14, i8 0, i64 4000, i1 false)
  %15 = bitcast [1000 x i32]* %11 to i8*
  call void @llvm.memset.p0i8.i64(i8* align 16 %15, i8 0, i64 4000, i1 false)
  %16 = getelementptr inbounds [10000 x i8], [10000 x i8]* %12, i64 0, i64 0
  %17 = call i32 (i8*, ...) @__isoc99_scanf(i8* getelementptr inbounds ([6 x i8], [6 x i8]* @.str, i64 0, i64 0), i32* %1, i8* %16)
  %18 = getelementptr inbounds [10000 x i8], [10000 x i8]* %12, i64 0, i64 0
  %19 = call i64 @strlen(i8* %18) #4
  %20 = trunc i64 %19 to i32
  store i32 %20, i32* %5, align 4
  store i32 0, i32* %2, align 4
  br label %21

21:                                               ; preds = %50, %0
  %22 = load i32, i32* %2, align 4
  %23 = load i32, i32* %5, align 4
  %24 = icmp slt i32 %22, %23
  br i1 %24, label %25, label %53

25:                                               ; preds = %21
  %26 = load i32, i32* %2, align 4
  store i32 %26, i32* %3, align 4
  br label %27

27:                                               ; preds = %46, %25
  %28 = load i32, i32* %3, align 4
  %29 = load i32, i32* %1, align 4
  %30 = load i32, i32* %2, align 4
  %31 = add nsw i32 %29, %30
  %32 = icmp slt i32 %28, %31
  br i1 %32, label %33, label %49

33:                                               ; preds = %27
  %34 = load i32, i32* %3, align 4
  %35 = sext i32 %34 to i64
  %36 = getelementptr inbounds [10000 x i8], [10000 x i8]* %12, i64 0, i64 %35
  %37 = load i8, i8* %36, align 1
  %38 = load i32, i32* %2, align 4
  %39 = sext i32 %38 to i64
  %40 = getelementptr inbounds [1000 x [1000 x i8]], [1000 x [1000 x i8]]* %13, i64 0, i64 %39
  %41 = load i32, i32* %3, align 4
  %42 = load i32, i32* %2, align 4
  %43 = sub nsw i32 %41, %42
  %44 = sext i32 %43 to i64
  %45 = getelementptr inbounds [1000 x i8], [1000 x i8]* %40, i64 0, i64 %44
  store i8 %37, i8* %45, align 1
  br label %46

46:                                               ; preds = %33
  %47 = load i32, i32* %3, align 4
  %48 = add nsw i32 %47, 1
  store i32 %48, i32* %3, align 4
  br label %27

49:                                               ; preds = %27
  br label %50

50:                                               ; preds = %49
  %51 = load i32, i32* %2, align 4
  %52 = add nsw i32 %51, 1
  store i32 %52, i32* %2, align 4
  br label %21

53:                                               ; preds = %21
  %54 = load i32, i32* %5, align 4
  %55 = load i32, i32* %1, align 4
  %56 = sub nsw i32 %54, %55
  %57 = add nsw i32 %56, 1
  store i32 %57, i32* %6, align 4
  store i32 0, i32* %2, align 4
  br label %58

58:                                               ; preds = %111, %53
  %59 = load i32, i32* %2, align 4
  %60 = load i32, i32* %6, align 4
  %61 = icmp slt i32 %59, %60
  br i1 %61, label %62, label %114

62:                                               ; preds = %58
  %63 = load i32, i32* %2, align 4
  %64 = add nsw i32 %63, 1
  store i32 %64, i32* %4, align 4
  br label %65

65:                                               ; preds = %107, %62
  %66 = load i32, i32* %4, align 4
  %67 = load i32, i32* %6, align 4
  %68 = icmp slt i32 %66, %67
  br i1 %68, label %69, label %110

69:                                               ; preds = %65
  store i32 1, i32* %9, align 4
  store i32 0, i32* %3, align 4
  br label %70

70:                                               ; preds = %94, %69
  %71 = load i32, i32* %3, align 4
  %72 = load i32, i32* %1, align 4
  %73 = icmp slt i32 %71, %72
  br i1 %73, label %74, label %97

74:                                               ; preds = %70
  %75 = load i32, i32* %2, align 4
  %76 = sext i32 %75 to i64
  %77 = getelementptr inbounds [1000 x [1000 x i8]], [1000 x [1000 x i8]]* %13, i64 0, i64 %76
  %78 = load i32, i32* %3, align 4
  %79 = sext i32 %78 to i64
  %80 = getelementptr inbounds [1000 x i8], [1000 x i8]* %77, i64 0, i64 %79
  %81 = load i8, i8* %80, align 1
  %82 = sext i8 %81 to i32
  %83 = load i32, i32* %4, align 4
  %84 = sext i32 %83 to i64
  %85 = getelementptr inbounds [1000 x [1000 x i8]], [1000 x [1000 x i8]]* %13, i64 0, i64 %84
  %86 = load i32, i32* %3, align 4
  %87 = sext i32 %86 to i64
  %88 = getelementptr inbounds [1000 x i8], [1000 x i8]* %85, i64 0, i64 %87
  %89 = load i8, i8* %88, align 1
  %90 = sext i8 %89 to i32
  %91 = icmp ne i32 %82, %90
  br i1 %91, label %92, label %93

92:                                               ; preds = %74
  store i32 0, i32* %9, align 4
  br label %93

93:                                               ; preds = %92, %74
  br label %94

94:                                               ; preds = %93
  %95 = load i32, i32* %3, align 4
  %96 = add nsw i32 %95, 1
  store i32 %96, i32* %3, align 4
  br label %70

97:                                               ; preds = %70
  %98 = load i32, i32* %9, align 4
  %99 = icmp eq i32 %98, 1
  br i1 %99, label %100, label %106

100:                                              ; preds = %97
  %101 = load i32, i32* %2, align 4
  %102 = sext i32 %101 to i64
  %103 = getelementptr inbounds [1000 x i32], [1000 x i32]* %11, i64 0, i64 %102
  %104 = load i32, i32* %103, align 4
  %105 = add nsw i32 %104, 1
  store i32 %105, i32* %103, align 4
  br label %106

106:                                              ; preds = %100, %97
  br label %107

107:                                              ; preds = %106
  %108 = load i32, i32* %4, align 4
  %109 = add nsw i32 %108, 1
  store i32 %109, i32* %4, align 4
  br label %65

110:                                              ; preds = %65
  br label %111

111:                                              ; preds = %110
  %112 = load i32, i32* %2, align 4
  %113 = add nsw i32 %112, 1
  store i32 %113, i32* %2, align 4
  br label %58

114:                                              ; preds = %58
  store i32 0, i32* %10, align 4
  store i32 0, i32* %2, align 4
  br label %115

115:                                              ; preds = %134, %114
  %116 = load i32, i32* %2, align 4
  %117 = load i32, i32* %6, align 4
  %118 = icmp slt i32 %116, %117
  br i1 %118, label %119, label %137

119:                                              ; preds = %115
  %120 = load i32, i32* %2, align 4
  %121 = sext i32 %120 to i64
  %122 = getelementptr inbounds [1000 x i32], [1000 x i32]* %11, i64 0, i64 %121
  %123 = load i32, i32* %122, align 4
  %124 = add nsw i32 %123, 1
  %125 = load i32, i32* %7, align 4
  %126 = icmp sgt i32 %124, %125
  br i1 %126, label %127, label %133

127:                                              ; preds = %119
  %128 = load i32, i32* %2, align 4
  %129 = sext i32 %128 to i64
  %130 = getelementptr inbounds [1000 x i32], [1000 x i32]* %11, i64 0, i64 %129
  %131 = load i32, i32* %130, align 4
  %132 = add nsw i32 %131, 1
  store i32 %132, i32* %7, align 4
  br label %133

133:                                              ; preds = %127, %119
  br label %134

134:                                              ; preds = %133
  %135 = load i32, i32* %2, align 4
  %136 = add nsw i32 %135, 1
  store i32 %136, i32* %2, align 4
  br label %115

137:                                              ; preds = %115
  %138 = load i32, i32* %7, align 4
  %139 = icmp sgt i32 %138, 1
  br i1 %139, label %140, label %141

140:                                              ; preds = %137
  store i32 1, i32* %10, align 4
  br label %141

141:                                              ; preds = %140, %137
  %142 = load i32, i32* %10, align 4
  %143 = icmp eq i32 %142, 0
  br i1 %143, label %144, label %146

144:                                              ; preds = %141
  %145 = call i32 (i8*, ...) @printf(i8* getelementptr inbounds ([3 x i8], [3 x i8]* @.str.1, i64 0, i64 0))
  br label %172

146:                                              ; preds = %141
  %147 = load i32, i32* %7, align 4
  %148 = call i32 (i8*, ...) @printf(i8* getelementptr inbounds ([4 x i8], [4 x i8]* @.str.2, i64 0, i64 0), i32 %147)
  store i32 0, i32* %2, align 4
  br label %149

149:                                              ; preds = %168, %146
  %150 = load i32, i32* %2, align 4
  %151 = load i32, i32* %6, align 4
  %152 = icmp slt i32 %150, %151
  br i1 %152, label %153, label %171

153:                                              ; preds = %149
  %154 = load i32, i32* %2, align 4
  %155 = sext i32 %154 to i64
  %156 = getelementptr inbounds [1000 x i32], [1000 x i32]* %11, i64 0, i64 %155
  %157 = load i32, i32* %156, align 4
  %158 = add nsw i32 %157, 1
  %159 = load i32, i32* %7, align 4
  %160 = icmp eq i32 %158, %159
  br i1 %160, label %161, label %167

161:                                              ; preds = %153
  %162 = load i32, i32* %2, align 4
  %163 = sext i32 %162 to i64
  %164 = getelementptr inbounds [1000 x [1000 x i8]], [1000 x [1000 x i8]]* %13, i64 0, i64 %163
  %165 = getelementptr inbounds [1000 x i8], [1000 x i8]* %164, i64 0, i64 0
  %166 = call i32 (i8*, ...) @printf(i8* getelementptr inbounds ([4 x i8], [4 x i8]* @.str.3, i64 0, i64 0), i8* %165)
  br label %167

167:                                              ; preds = %161, %153
  br label %168

168:                                              ; preds = %167
  %169 = load i32, i32* %2, align 4
  %170 = add nsw i32 %169, 1
  store i32 %170, i32* %2, align 4
  br label %149

171:                                              ; preds = %149
  br label %172

172:                                              ; preds = %171, %144
  ret void
}

; Function Attrs: argmemonly nounwind willreturn
declare void @llvm.memset.p0i8.i64(i8* nocapture writeonly, i8, i64, i1 immarg) #1

declare dso_local i32 @__isoc99_scanf(i8*, ...) #2

; Function Attrs: nounwind readonly
declare dso_local i64 @strlen(i8*) #3

declare dso_local i32 @printf(i8*, ...) #2


!llvm.module.flags = !{!0}
!llvm.ident = !{!1}

!0 = !{i32 1, !"wchar_size", i32 4}
!1 = !{!"clang version 10.0.0-4ubuntu1 "}
